; ModuleID = '44/30.c'
source_filename = "44/30.c"
target datalayout = "e-m:e-p270:32:32-p271:32:32-p272:64:64-i64:64-f80:128-n8:16:32:64-S128"
target triple = "x86_64-pc-linux-gnu"

@.str = private unnamed_addr constant [3 x i8] c"%d\00", align 1
@.str.1 = private unnamed_addr constant [4 x i8] c"%d\0A\00", align 1

; Function Attrs: noinline nounwind uwtable
define dso_local i32 @main() #0 {
  %1 = alloca i32, align 4
  %2 = alloca i32, align 4
  %3 = alloca i32, align 4
  store i32 0, i32* %1, align 4
  store i32 0, i32* %2, align 4
  br label %4

4:                                                ; preds = %12, %0
  %5 = load i32, i32* %2, align 4
  %6 = icmp slt i32 %5, 6
  br i1 %6, label %7, label %15

7:                                                ; preds = %4
  %8 = call i32 (i8*, ...) @__isoc99_scanf(i8* getelementptr inbounds ([3 x i8], [3 x i8]* @.str, i64 0, i64 0), i32* %3)
  %9 = load i32, i32* %3, align 4
  %10 = call i32 @reverse(i32 %9)
  %11 = call i32 (i8*, ...) @printf(i8* getelementptr inbounds ([4 x i8], [4 x i8]* @.str.1, i64 0, i64 0), i32 %10)
  br label %12

12:                                               ; preds = %7
  %13 = load i32, i32* %2, align 4
  %14 = add nsw i32 %13, 1
  store i32 %14, i32* %2, align 4
  br label %4

15:                                               ; preds = %4
  ret i32 0
}

declare dso_local i32 @__isoc99_scanf(i8*, ...) #1

declare dso_local i32 @printf(i8*, ...) #1

; Function Attrs: noinline nounwind uwtable
define dso_local i32 @reverse(i32 %0) #0 {
  %2 = alloca i32, align 4
  %3 = alloca i32, align 4
  %4 = alloca i32, align 4
  %5 = alloca i32, align 4
  %6 = alloca i32, align 4
  %7 = alloca i32, align 4
  store i32 %0, i32* %3, align 4
  store i32 0, i32* %6, align 4
  %8 = load i32, i32* %3, align 4
  %9 = icmp eq i32 %8, 0
  br i1 %9, label %10, label %11

10:                                               ; preds = %1
  store i32 0, i32* %2, align 4
  br label %54

11:                                               ; preds = %1
  %12 = load i32, i32* %3, align 4
  %13 = load i32, i32* %3, align 4
  %14 = call i32 @abs(i32 %13) #4
  %15 = sdiv i32 %12, %14
  store i32 %15, i32* %5, align 4
  %16 = load i32, i32* %3, align 4
  %17 = call i32 @abs(i32 %16) #4
  store i32 %17, i32* %3, align 4
  %18 = load i32, i32* %3, align 4
  %19 = sitofp i32 %18 to double
  %20 = call double @log10(double %19) #5
  %21 = fptosi double %20 to i32
  %22 = add nsw i32 %21, 1
  store i32 %22, i32* %4, align 4
  store i32 0, i32* %7, align 4
  br label %23

23:                                               ; preds = %47, %11
  %24 = load i32, i32* %7, align 4
  %25 = load i32, i32* %4, align 4
  %26 = icmp slt i32 %24, %25
  br i1 %26, label %27, label %50

27:                                               ; preds = %23
  %28 = load i32, i32* %3, align 4
  %29 = load i32, i32* %7, align 4
  %30 = sitofp i32 %29 to double
  %31 = call double @pow(double 1.000000e+01, double %30) #5
  %32 = fptosi double %31 to i32
  %33 = sdiv i32 %28, %32
  %34 = srem i32 %33, 10
  %35 = sitofp i32 %34 to double
  %36 = load i32, i32* %4, align 4
  %37 = load i32, i32* %7, align 4
  %38 = sub nsw i32 %36, %37
  %39 = sub nsw i32 %38, 1
  %40 = sitofp i32 %39 to double
  %41 = call double @pow(double 1.000000e+01, double %40) #5
  %42 = fmul double %35, %41
  %43 = load i32, i32* %6, align 4
  %44 = sitofp i32 %43 to double
  %45 = fadd double %44, %42
  %46 = fptosi double %45 to i32
  store i32 %46, i32* %6, align 4
  br label %47

47:                                               ; preds = %27
  %48 = load i32, i32* %7, align 4
  %49 = add nsw i32 %48, 1
  store i32 %49, i32* %7, align 4
  br label %23

50:                                               ; preds = %23
  %51 = load i32, i32* %5, align 4
  %52 = load i32, i32* %6, align 4
  %53 = mul nsw i32 %51, %52
  store i32 %53, i32* %2, align 4
  br label %54

54:                                               ; preds = %50, %10
  %55 = load i32, i32* %2, align 4
  ret i32 %55
}

; Function Attrs: nounwind readnone
declare dso_local i32 @abs(i32) #2

; Function Attrs: nounwind
declare dso_local double @log10(double) #3

; Function Attrs: nounwind
declare dso_local double @pow(double, double) #3


!llvm.module.flags = !{!0}
!llvm.ident = !{!1}

!0 = !{i32 1, !"wchar_size", i32 4}
!1 = !{!"clang version 10.0.0-4ubuntu1 "}
